target datalayout = "e-m:e-p270:32:32-p271:32:32-p272:64:64-i64:64-i128:128-f80:128-n8:16:32:64-S128"
target triple = "x86_64-pc-linux-gnu"

%struct._object = type { %union.anon, ptr }
%union.anon = type { i64 }
%struct.PyVarObject = type { %struct._object, i64 }
%struct.PyTupleObject = type { %struct.PyVarObject, [1 x ptr] }
%struct._typeobject = type { %struct.PyVarObject, ptr, i64, i64, ptr, i64, ptr, ptr, ptr, ptr, ptr, ptr, ptr, ptr, ptr, ptr, ptr, ptr, ptr, i64, ptr, ptr, ptr, ptr, i64, ptr, ptr, ptr, ptr, ptr, ptr, ptr, ptr, ptr, i64, ptr, ptr, ptr, ptr, ptr, ptr, ptr, ptr, ptr, ptr, ptr, i32, ptr, ptr, i8, i16 }

@_Py_NoneStruct = external global %struct._object, align 8
@PyExc_TypeError = external global ptr, align 8
@.str.207 = private unnamed_addr constant [12 x i8] c"__setattr__\00", align 1
@.str.372 = private unnamed_addr constant [33 x i8] c"can't apply this %s to %s object\00", align 1

; Function Attrs: inlinehint nounwind uwtable
define internal i64 @Py_SIZE(ptr noundef %0) #2 {
  %2 = alloca ptr, align 8
  store ptr %0, ptr %2, align 8, !tbaa !97
  %3 = load ptr, ptr %2, align 8, !tbaa !97
  %4 = getelementptr inbounds nuw %struct.PyVarObject, ptr %3, i32 0, i32 1
  %5 = load i64, ptr %4, align 8, !tbaa !375
  ret i64 %5
}

; Function Attrs: inlinehint nounwind uwtable
define internal i64 @PyTuple_GET_SIZE(ptr noundef %0) #2 {
  %2 = alloca ptr, align 8
  %3 = alloca ptr, align 8
  store ptr %0, ptr %2, align 8, !tbaa !97
  call void @llvm.lifetime.start.p0(i64 8, ptr %3) #11
  %4 = load ptr, ptr %2, align 8, !tbaa !97
  store ptr %4, ptr %3, align 8, !tbaa !13
  %5 = load ptr, ptr %3, align 8, !tbaa !13
  %6 = call i64 @Py_SIZE(ptr noundef %5)
  call void @llvm.lifetime.end.p0(i64 8, ptr %3) #11
  ret i64 %6
}

; Function Attrs: inlinehint nounwind uwtable
define internal ptr @lookup_tp_mro(ptr noundef %0) #2 {
  %2 = alloca ptr, align 8
  store ptr %0, ptr %2, align 8, !tbaa !9
  %3 = load ptr, ptr %2, align 8, !tbaa !9
  %4 = getelementptr inbounds nuw %struct._typeobject, ptr %3, i32 0, i32 41
  %5 = load ptr, ptr %4, align 8, !tbaa !116
  ret ptr %5
}

; Function Attrs: inlinehint nounwind uwtable
define internal i32 @PyType_HasFeature(ptr noundef %0, i64 noundef %1) #2 {
  %3 = alloca ptr, align 8
  %4 = alloca i64, align 8
  %5 = alloca i64, align 8
  store ptr %0, ptr %3, align 8, !tbaa !9
  store i64 %1, ptr %4, align 8, !tbaa !11
  call void @llvm.lifetime.start.p0(i64 8, ptr %5) #11
  %6 = load ptr, ptr %3, align 8, !tbaa !9
  %7 = getelementptr inbounds nuw %struct._typeobject, ptr %6, i32 0, i32 19
  %8 = load i64, ptr %7, align 8, !tbaa !105
  store i64 %8, ptr %5, align 8, !tbaa !11
  %9 = load i64, ptr %5, align 8, !tbaa !11
  %10 = load i64, ptr %4, align 8, !tbaa !11
  %11 = and i64 %9, %10
  %12 = icmp ne i64 %11, 0
  %13 = zext i1 %12 to i32
  call void @llvm.lifetime.end.p0(i64 8, ptr %5) #11
  ret i32 %13
}

; Function Attrs: inlinehint nounwind uwtable
define internal ptr @_Py_TYPE(ptr noundef %0) #2 {
  %2 = alloca ptr, align 8
  store ptr %0, ptr %2, align 8, !tbaa !97
  %3 = load ptr, ptr %2, align 8, !tbaa !97
  %4 = getelementptr inbounds nuw %struct._object, ptr %3, i32 0, i32 1
  %5 = load ptr, ptr %4, align 8, !tbaa !243
  ret ptr %5
}

; Function Attrs: nounwind uwtable
define internal i32 @hackcheck_unlocked(ptr noundef %0, ptr noundef %1, ptr noundef %2) #0 {
  %4 = alloca i32, align 4
  %5 = alloca ptr, align 8
  %6 = alloca ptr, align 8
  %7 = alloca ptr, align 8
  %8 = alloca ptr, align 8
  %9 = alloca ptr, align 8
  %10 = alloca i32, align 4
  %11 = alloca ptr, align 8
  %12 = alloca i64, align 8
  %13 = alloca ptr, align 8
  %14 = alloca ptr, align 8
  store ptr %0, ptr %5, align 8, !tbaa !97
  store ptr %1, ptr %6, align 8, !tbaa !13
  store ptr %2, ptr %7, align 8, !tbaa !123
  call void @llvm.lifetime.start.p0(i64 8, ptr %8) #11
  %15 = load ptr, ptr %5, align 8, !tbaa !97
  %16 = call ptr @_Py_TYPE(ptr noundef %15)
  store ptr %16, ptr %8, align 8, !tbaa !9
  call void @llvm.lifetime.start.p0(i64 8, ptr %9) #11
  %17 = load ptr, ptr %8, align 8, !tbaa !9
  %18 = call ptr @lookup_tp_mro(ptr noundef %17)
  store ptr %18, ptr %9, align 8, !tbaa !97
  %19 = load ptr, ptr %9, align 8, !tbaa !97
  %20 = icmp ne ptr %19, null
  br i1 %20, label %22, label %21

21:                                               ; preds = %3
  store i32 1, ptr %4, align 4
  store i32 1, ptr %10, align 4
  br label %94

22:                                               ; preds = %3
  call void @llvm.lifetime.start.p0(i64 8, ptr %11) #11
  %23 = load ptr, ptr %8, align 8, !tbaa !9
  store ptr %23, ptr %11, align 8, !tbaa !9
  call void @llvm.lifetime.start.p0(i64 8, ptr %12) #11
  %24 = load ptr, ptr %9, align 8, !tbaa !97
  %25 = call i64 @PyTuple_GET_SIZE(ptr noundef %24)
  %26 = sub i64 %25, 1
  store i64 %26, ptr %12, align 8, !tbaa !11
  br label %27

27:                                               ; preds = %56, %22
  %28 = load i64, ptr %12, align 8, !tbaa !11
  %29 = icmp sge i64 %28, 0
  br i1 %29, label %30, label %59

30:                                               ; preds = %27
  call void @llvm.lifetime.start.p0(i64 8, ptr %13) #11
  %31 = load ptr, ptr %9, align 8, !tbaa !97
  %32 = getelementptr inbounds nuw %struct.PyTupleObject, ptr %31, i32 0, i32 1
  %33 = load i64, ptr %12, align 8, !tbaa !11
  %34 = getelementptr [1 x ptr], ptr %32, i64 0, i64 %33
  %35 = load ptr, ptr %34, align 8, !tbaa !97
  store ptr %35, ptr %13, align 8, !tbaa !9
  %36 = load ptr, ptr %13, align 8, !tbaa !9
  %37 = getelementptr inbounds nuw %struct._typeobject, ptr %36, i32 0, i32 17
  %38 = load ptr, ptr %37, align 8, !tbaa !452
  %39 = icmp eq ptr %38, @slot_tp_setattro
  br i1 %39, label %40, label %41

40:                                               ; preds = %30
  br label %52

41:                                               ; preds = %30
  %42 = load ptr, ptr %13, align 8, !tbaa !9
  %43 = getelementptr inbounds nuw %struct._typeobject, ptr %42, i32 0, i32 17
  %44 = load ptr, ptr %43, align 8, !tbaa !452
  %45 = load ptr, ptr %8, align 8, !tbaa !9
  %46 = getelementptr inbounds nuw %struct._typeobject, ptr %45, i32 0, i32 17
  %47 = load ptr, ptr %46, align 8, !tbaa !452
  %48 = icmp eq ptr %44, %47
  br i1 %48, label %49, label %51

49:                                               ; preds = %41
  %50 = load ptr, ptr %13, align 8, !tbaa !9
  store ptr %50, ptr %11, align 8, !tbaa !9
  store i32 2, ptr %10, align 4
  br label %53

51:                                               ; preds = %41
  br label %52

52:                                               ; preds = %51, %40
  store i32 0, ptr %10, align 4
  br label %53

53:                                               ; preds = %52, %49
  call void @llvm.lifetime.end.p0(i64 8, ptr %13) #11
  %54 = load i32, ptr %10, align 4
  switch i32 %54, label %96 [
    i32 0, label %55
    i32 2, label %59
  ]

55:                                               ; preds = %53
  br label %56

56:                                               ; preds = %55
  %57 = load i64, ptr %12, align 8, !tbaa !11
  %58 = add i64 %57, -1
  store i64 %58, ptr %12, align 8, !tbaa !11
  br label %27, !llvm.loop !535

59:                                               ; preds = %53, %27
  call void @llvm.lifetime.start.p0(i64 8, ptr %14) #11
  %60 = load ptr, ptr %11, align 8, !tbaa !9
  store ptr %60, ptr %14, align 8, !tbaa !9
  br label %61

61:                                               ; preds = %86, %59
  %62 = load ptr, ptr %14, align 8, !tbaa !9
  %63 = icmp ne ptr %62, null
  br i1 %63, label %65, label %64

64:                                               ; preds = %61
  store i32 5, ptr %10, align 4
  br label %90

65:                                               ; preds = %61
  %66 = load ptr, ptr %14, align 8, !tbaa !9
  %67 = getelementptr inbounds nuw %struct._typeobject, ptr %66, i32 0, i32 17
  %68 = load ptr, ptr %67, align 8, !tbaa !452
  %69 = load ptr, ptr %6, align 8, !tbaa !13
  %70 = icmp eq ptr %68, %69
  br i1 %70, label %71, label %72

71:                                               ; preds = %65
  store i32 5, ptr %10, align 4
  br label %90

72:                                               ; preds = %65
  %73 = load ptr, ptr %14, align 8, !tbaa !9
  %74 = getelementptr inbounds nuw %struct._typeobject, ptr %73, i32 0, i32 17
  %75 = load ptr, ptr %74, align 8, !tbaa !452
  %76 = icmp ne ptr %75, @slot_tp_setattro
  br i1 %76, label %77, label %84

77:                                               ; preds = %72
  %78 = load ptr, ptr @PyExc_TypeError, align 8, !tbaa !97
  %79 = load ptr, ptr %7, align 8, !tbaa !123
  %80 = load ptr, ptr %8, align 8, !tbaa !9
  %81 = getelementptr inbounds nuw %struct._typeobject, ptr %80, i32 0, i32 1
  %82 = load ptr, ptr %81, align 8, !tbaa !239
  %83 = call ptr (ptr, ptr, ...) @PyErr_Format(ptr noundef %78, ptr noundef @.str.372, ptr noundef %79, ptr noundef %82)
  store i32 0, ptr %4, align 4
  store i32 1, ptr %10, align 4
  br label %90

84:                                               ; preds = %72
  br label %85

85:                                               ; preds = %84
  br label %86

86:                                               ; preds = %85
  %87 = load ptr, ptr %14, align 8, !tbaa !9
  %88 = getelementptr inbounds nuw %struct._typeobject, ptr %87, i32 0, i32 30
  %89 = load ptr, ptr %88, align 8, !tbaa !278
  store ptr %89, ptr %14, align 8, !tbaa !9
  br label %61, !llvm.loop !536

90:                                               ; preds = %77, %71, %64
  call void @llvm.lifetime.end.p0(i64 8, ptr %14) #11
  %91 = load i32, ptr %10, align 4
  switch i32 %91, label %93 [
    i32 5, label %92
  ]

92:                                               ; preds = %90
  store i32 1, ptr %4, align 4
  store i32 1, ptr %10, align 4
  br label %93

93:                                               ; preds = %92, %90
  call void @llvm.lifetime.end.p0(i64 8, ptr %12) #11
  call void @llvm.lifetime.end.p0(i64 8, ptr %11) #11
  br label %94

94:                                               ; preds = %93, %21
  call void @llvm.lifetime.end.p0(i64 8, ptr %9) #11
  call void @llvm.lifetime.end.p0(i64 8, ptr %8) #11
  %95 = load i32, ptr %4, align 4
  ret i32 %95

96:                                               ; preds = %53
  unreachable
}

; Function Attrs: inlinehint nounwind uwtable
define internal i32 @PyType_Check(ptr noundef %0) #2 {
  %2 = alloca ptr, align 8
  store ptr %0, ptr %2, align 8, !tbaa !97
  %3 = load ptr, ptr %2, align 8, !tbaa !97
  %4 = call ptr @_Py_TYPE(ptr noundef %3)
  %5 = call i32 @PyType_HasFeature(ptr noundef %4, i64 noundef 2147483648)
  ret i32 %5
}

; Function Attrs: nounwind uwtable
define internal i32 @hackcheck(ptr noundef %0, ptr noundef %1, ptr noundef %2) #0 {
  %4 = alloca i32, align 4
  %5 = alloca ptr, align 8
  %6 = alloca ptr, align 8
  %7 = alloca ptr, align 8
  %8 = alloca i32, align 4
  store ptr %0, ptr %5, align 8, !tbaa !97
  store ptr %1, ptr %6, align 8, !tbaa !13
  store ptr %2, ptr %7, align 8, !tbaa !123
  %9 = load ptr, ptr %5, align 8, !tbaa !97
  %10 = call i32 @PyType_Check(ptr noundef %9)
  %11 = icmp ne i32 %10, 0
  br i1 %11, label %13, label %12

12:                                               ; preds = %3
  store i32 1, ptr %4, align 4
  br label %19

13:                                               ; preds = %3
  call void @llvm.lifetime.start.p0(i64 4, ptr %8) #11
  %14 = load ptr, ptr %5, align 8, !tbaa !97
  %15 = load ptr, ptr %6, align 8, !tbaa !13
  %16 = load ptr, ptr %7, align 8, !tbaa !123
  %17 = call i32 @hackcheck_unlocked(ptr noundef %14, ptr noundef %15, ptr noundef %16)
  store i32 %17, ptr %8, align 4, !tbaa !115
  %18 = load i32, ptr %8, align 4, !tbaa !115
  store i32 %18, ptr %4, align 4
  call void @llvm.lifetime.end.p0(i64 4, ptr %8) #11
  br label %19

19:                                               ; preds = %13, %12
  %20 = load i32, ptr %4, align 4
  ret i32 %20
}

; Function Attrs: nounwind uwtable
define internal ptr @wrap_setattr(ptr noundef %0, ptr noundef %1, ptr noundef %2) #0 {
  %4 = alloca ptr, align 8
  %5 = alloca ptr, align 8
  %6 = alloca ptr, align 8
  %7 = alloca ptr, align 8
  %8 = alloca ptr, align 8
  %9 = alloca i32, align 4
  %10 = alloca ptr, align 8
  %11 = alloca ptr, align 8
  %12 = alloca i32, align 4
  store ptr %0, ptr %5, align 8, !tbaa !97
  store ptr %1, ptr %6, align 8, !tbaa !97
  store ptr %2, ptr %7, align 8, !tbaa !13
  call void @llvm.lifetime.start.p0(i64 8, ptr %8) #11
  %13 = load ptr, ptr %7, align 8, !tbaa !13
  store ptr %13, ptr %8, align 8, !tbaa !13
  call void @llvm.lifetime.start.p0(i64 4, ptr %9) #11
  call void @llvm.lifetime.start.p0(i64 8, ptr %10) #11
  call void @llvm.lifetime.start.p0(i64 8, ptr %11) #11
  %14 = load ptr, ptr %6, align 8, !tbaa !97
  %15 = call i32 (ptr, ptr, i64, i64, ...) @PyArg_UnpackTuple(ptr noundef %14, ptr noundef @.str.207, i64 noundef 2, i64 noundef 2, ptr noundef %10, ptr noundef %11)
  %16 = icmp ne i32 %15, 0
  br i1 %16, label %18, label %17

17:                                               ; preds = %3
  store ptr null, ptr %4, align 8
  store i32 1, ptr %12, align 4
  br label %34

18:                                               ; preds = %3
  %19 = load ptr, ptr %5, align 8, !tbaa !97
  %20 = load ptr, ptr %8, align 8, !tbaa !13
  %21 = call i32 @hackcheck(ptr noundef %19, ptr noundef %20, ptr noundef @.str.207)
  %22 = icmp ne i32 %21, 0
  br i1 %22, label %24, label %23

23:                                               ; preds = %18
  store ptr null, ptr %4, align 8
  store i32 1, ptr %12, align 4
  br label %34

24:                                               ; preds = %18
  %25 = load ptr, ptr %8, align 8, !tbaa !13
  %26 = load ptr, ptr %5, align 8, !tbaa !97
  %27 = load ptr, ptr %10, align 8, !tbaa !97
  %28 = load ptr, ptr %11, align 8, !tbaa !97
  %29 = call i32 %25(ptr noundef %26, ptr noundef %27, ptr noundef %28)
  store i32 %29, ptr %9, align 4, !tbaa !115
  %30 = load i32, ptr %9, align 4, !tbaa !115
  %31 = icmp slt i32 %30, 0
  br i1 %31, label %32, label %33

32:                                               ; preds = %24
  store ptr null, ptr %4, align 8
  store i32 1, ptr %12, align 4
  br label %34

33:                                               ; preds = %24
  store ptr @_Py_NoneStruct, ptr %4, align 8
  store i32 1, ptr %12, align 4
  br label %34

34:                                               ; preds = %33, %32, %23, %17
  call void @llvm.lifetime.end.p0(i64 8, ptr %11) #11
  call void @llvm.lifetime.end.p0(i64 8, ptr %10) #11
  call void @llvm.lifetime.end.p0(i64 4, ptr %9) #11
  call void @llvm.lifetime.end.p0(i64 8, ptr %8) #11
  %35 = load ptr, ptr %4, align 8
  ret ptr %35
}