; Function Attrs: nounwind uwtable
define internal ptr @wrap_setattr(ptr noundef %0, ptr noundef %1, ptr noundef readonly %2) #1 {
  %4 = alloca ptr, align 8
  %5 = alloca ptr, align 8
  call void @llvm.lifetime.start.p0(i64 8, ptr nonnull %4) #24
  call void @llvm.lifetime.start.p0(i64 8, ptr nonnull %5) #24
  %6 = call i32 (ptr, ptr, i64, i64, ...) @PyArg_UnpackTuple(ptr noundef %1, ptr noundef nonnull @.str.207, i64 noundef 2, i64 noundef 2, ptr noundef nonnull %4, ptr noundef nonnull %5) #24
  %.not = icmp eq i32 %6, 0
  br i1 %.not, label %44, label %7

7:                                                ; preds = %3
  %8 = getelementptr i8, ptr %0, i64 8
  %.val = load ptr, ptr %8, align 8, !tbaa !116
  %9 = getelementptr i8, ptr %.val, i64 168
  %.val.val.i = load i64, ptr %9, align 8, !tbaa !108
  %10 = and i64 %.val.val.i, 2147483648
  %.not1.i = icmp eq i64 %10, 0
  br i1 %.not1.i, label %.loopexit, label %11

11:                                               ; preds = %7
  %12 = getelementptr i8, ptr %.val, i64 344
  %.val.i.i = load ptr, ptr %12, align 8, !tbaa !110
  %.not.i.i = icmp eq ptr %.val.i.i, null
  br i1 %.not.i.i, label %.loopexit, label %13

13:                                               ; preds = %11
  %14 = getelementptr i8, ptr %.val.i.i, i64 16
  %.val36.i.i = load i64, ptr %14, align 8, !tbaa !132
  %15 = getelementptr inbounds nuw i8, ptr %.val, i64 152
  %.0246.i.i = add i64 %.val36.i.i, -1
  %16 = icmp sgt i64 %.0246.i.i, -1
  br i1 %16, label %.lr.ph.i.i, label %.lr.ph12.i.i.preheader

.lr.ph.i.i:                                       ; preds = %13
  %17 = getelementptr inbounds nuw i8, ptr %.val.i.i, i64 24
  br label %18

18:                                               ; preds = %27, %.lr.ph.i.i
  %.0247.i.i = phi i64 [ %.0246.i.i, %.lr.ph.i.i ], [ %.024.i.i, %27 ]
  %19 = getelementptr [1 x ptr], ptr %17, i64 0, i64 %.0247.i.i
  %20 = load ptr, ptr %19, align 8, !tbaa !105
  %21 = getelementptr inbounds nuw i8, ptr %20, i64 152
  %22 = load ptr, ptr %21, align 8, !tbaa !340
  %23 = icmp eq ptr %22, @slot_tp_setattro
  br i1 %23, label %27, label %24

24:                                               ; preds = %18
  %25 = load ptr, ptr %15, align 8, !tbaa !340
  %26 = icmp eq ptr %22, %25
  br i1 %26, label %.lr.ph12.i.i.preheader, label %27

27:                                               ; preds = %24, %18
  %.024.i.i = add nsw i64 %.0247.i.i, -1
  %28 = icmp sgt i64 %.0247.i.i, 0
  br i1 %28, label %18, label %.thread.i.i, !llvm.loop !484

.thread.i.i:                                      ; preds = %27
  %.not3310.i.i = icmp eq ptr %.val, null
  br i1 %.not3310.i.i, label %.loopexit, label %.lr.ph12.i.i.preheader

.lr.ph12.i.i.preheader:                           ; preds = %24, %.thread.i.i, %13
  %.011.i.i.ph = phi ptr [ %.val, %13 ], [ %.val, %.thread.i.i ], [ %20, %24 ]
  br label %.lr.ph12.i.i

.lr.ph12.i.i:                                     ; preds = %.lr.ph12.i.i.preheader, %33
  %.011.i.i = phi ptr [ %35, %33 ], [ %.011.i.i.ph, %.lr.ph12.i.i.preheader ]
  %29 = getelementptr inbounds nuw i8, ptr %.011.i.i, i64 152
  %30 = load ptr, ptr %29, align 8, !tbaa !340
  %31 = icmp eq ptr %30, %2
  br i1 %31, label %.loopexit, label %32

32:                                               ; preds = %.lr.ph12.i.i
  %.not34.i.i = icmp eq ptr %30, @slot_tp_setattro
  br i1 %.not34.i.i, label %33, label %hackcheck.exit

33:                                               ; preds = %32
  %34 = getelementptr inbounds nuw i8, ptr %.011.i.i, i64 256
  %35 = load ptr, ptr %34, align 8, !tbaa !237
  %.not33.i.i = icmp eq ptr %35, null
  br i1 %.not33.i.i, label %.loopexit, label %.lr.ph12.i.i, !llvm.loop !485

hackcheck.exit:                                   ; preds = %32
  %36 = load ptr, ptr @PyExc_TypeError, align 8, !tbaa !105
  %37 = getelementptr inbounds nuw i8, ptr %.val, i64 24
  %38 = load ptr, ptr %37, align 8, !tbaa !227
  %39 = call ptr (ptr, ptr, ...) @PyErr_Format(ptr noundef %36, ptr noundef nonnull @.str.372, ptr noundef nonnull @.str.207, ptr noundef %38) #24
  br label %44

.loopexit:                                        ; preds = %.lr.ph12.i.i, %33, %7, %11, %.thread.i.i
  %40 = load ptr, ptr %4, align 8, !tbaa !105
  %41 = load ptr, ptr %5, align 8, !tbaa !105
  %42 = call i32 %2(ptr noundef %0, ptr noundef %40, ptr noundef %41) #24
  %43 = icmp slt i32 %42, 0
  %._Py_NoneStruct = select i1 %43, ptr null, ptr @_Py_NoneStruct
  br label %44

44:                                               ; preds = %hackcheck.exit, %.loopexit, %3
  %.0 = phi ptr [ null, %3 ], [ null, %hackcheck.exit ], [ %._Py_NoneStruct, %.loopexit ]
  call void @llvm.lifetime.end.p0(i64 8, ptr nonnull %5) #24
  call void @llvm.lifetime.end.p0(i64 8, ptr nonnull %4) #24
  ret ptr %.0
}